; Function Attrs: mustprogress nounwind uwtable
define void @_ZN7Imf_3_221DeepScanLineInputFileD2Ev(ptr noundef nonnull align 8 dereferenceable(16) %this) unnamed_addr #4 align 2 {
entry:
  store ptr getelementptr inbounds ({ [4 x ptr] }, ptr @_ZTVN7Imf_3_221DeepScanLineInputFileE, i64 0, i32 0, i64 2), ptr %this, align 8
  %_data = getelementptr inbounds i8, ptr %this, i64 8
  %0 = load ptr, ptr %_data, align 8
  %_deleteStream = getelementptr inbounds i8, ptr %0, i64 512
  %1 = load i8, ptr %_deleteStream, align 8
  %2 = and i8 %1, 1
  %tobool.not = icmp eq i8 %2, 0
  br i1 %tobool.not, label %if.then5, label %if.then

if.then:                                          ; preds = %entry
  %_streamData = getelementptr inbounds i8, ptr %0, i64 504
  %3 = load ptr, ptr %_streamData, align 8
  %is = getelementptr inbounds i8, ptr %3, i64 40
  %4 = load ptr, ptr %is, align 8
  %isnull = icmp eq ptr %4, null
  br i1 %isnull, label %if.then5, label %if.end

if.end:                                           ; preds = %if.then
  %vtable = load ptr, ptr %4, align 8
  %vfn = getelementptr inbounds i8, ptr %vtable, i64 8
  %5 = load ptr, ptr %vfn, align 8
  tail call void %5(ptr noundef nonnull align 8 dereferenceable(40) %4) #21
  %.pr.pre = load ptr, ptr %_data, align 8
  %tobool4.not = icmp eq ptr %.pr.pre, null
  br i1 %tobool4.not, label %if.end33, label %if.then5

if.then5:                                         ; preds = %if.then, %entry, %if.end
  %6 = phi ptr [ %.pr.pre, %if.end ], [ %0, %entry ], [ %0, %if.then ]
  %memoryMapped = getelementptr inbounds i8, ptr %6, i64 384
  %7 = load i8, ptr %memoryMapped, align 8
  %8 = and i8 %7, 1
  %tobool7.not = icmp eq i8 %8, 0
  br i1 %tobool7.not, label %for.cond.preheader, label %if.end16

for.cond.preheader:                               ; preds = %if.then5
  %lineBuffers11 = getelementptr inbounds i8, ptr %6, i64 336
  %lineBuffers.val12 = load ptr, ptr %lineBuffers11, align 8
  %9 = getelementptr i8, ptr %6, i64 344
  %lineBuffers.val713 = load ptr, ptr %9, align 8
  %cmp19.not = icmp eq ptr %lineBuffers.val713, %lineBuffers.val12
  br i1 %cmp19.not, label %if.end16, label %for.body

for.body:                                         ; preds = %for.cond.preheader, %for.inc
  %10 = phi ptr [ %13, %for.inc ], [ %6, %for.cond.preheader ]
  %lineBuffers.val21 = phi ptr [ %lineBuffers.val, %for.inc ], [ %lineBuffers.val12, %for.cond.preheader ]
  %i.020 = phi i64 [ %inc, %for.inc ], [ 0, %for.cond.preheader ]
  %add.ptr.i = getelementptr inbounds ptr, ptr %lineBuffers.val21, i64 %i.020
  %11 = load ptr, ptr %add.ptr.i, align 8
  %buffer = getelementptr inbounds i8, ptr %11, i64 8
  %12 = load ptr, ptr %buffer, align 8
  %isnull13 = icmp eq ptr %12, null
  br i1 %isnull13, label %for.inc, label %delete.notnull14

delete.notnull14:                                 ; preds = %for.body
  tail call void @_ZdaPv(ptr noundef nonnull %12) #24
  %.pre = load ptr, ptr %_data, align 8
  br label %for.inc

for.inc:                                          ; preds = %for.body, %delete.notnull14
  %13 = phi ptr [ %10, %for.body ], [ %.pre, %delete.notnull14 ]
  %inc = add nuw i64 %i.020, 1
  %lineBuffers = getelementptr inbounds i8, ptr %13, i64 336
  %lineBuffers.val = load ptr, ptr %lineBuffers, align 8
  %14 = getelementptr i8, ptr %13, i64 344
  %lineBuffers.val7 = load ptr, ptr %14, align 8
  %sub.ptr.lhs.cast.i = ptrtoint ptr %lineBuffers.val7 to i64
  %sub.ptr.rhs.cast.i = ptrtoint ptr %lineBuffers.val to i64
  %sub.ptr.sub.i = sub i64 %sub.ptr.lhs.cast.i, %sub.ptr.rhs.cast.i
  %sub.ptr.div.i = ashr exact i64 %sub.ptr.sub.i, 3
  %cmp = icmp ult i64 %inc, %sub.ptr.div.i
  br i1 %cmp, label %for.body, label %if.end16, !llvm.loop !15

if.end16:                                         ; preds = %for.inc, %for.cond.preheader, %if.then5
  %15 = phi ptr [ %6, %for.cond.preheader ], [ %6, %if.then5 ], [ %13, %for.inc ]
  %partNumber = getelementptr inbounds i8, ptr %15, i64 364
  %16 = load i32, ptr %partNumber, align 4
  %cmp18 = icmp eq i32 %16, -1
  br i1 %cmp18, label %land.lhs.true, label %delete.notnull31

land.lhs.true:                                    ; preds = %if.end16
  %_streamData20 = getelementptr inbounds i8, ptr %15, i64 504
  %17 = load ptr, ptr %_streamData20, align 8
  %tobool21.not = icmp eq ptr %17, null
  br i1 %tobool21.not, label %delete.notnull31, label %if.end28

if.end28:                                         ; preds = %land.lhs.true
  tail call void @_ZdlPv(ptr noundef nonnull %17) #24
  %.pr9.pre = load ptr, ptr %_data, align 8
  %isnull30 = icmp eq ptr %.pr9.pre, null
  br i1 %isnull30, label %if.end33, label %delete.notnull31

delete.notnull31:                                 ; preds = %land.lhs.true, %if.end16, %if.end28
  %18 = phi ptr [ %.pr9.pre, %if.end28 ], [ %15, %if.end16 ], [ %15, %land.lhs.true ]
  tail call void @_ZN7Imf_3_221DeepScanLineInputFile4DataD2Ev(ptr noundef nonnull align 8 dereferenceable(513) %18) #21
  tail call void @_ZdlPv(ptr noundef nonnull %18) #24
  br label %if.end33

if.end33:                                         ; preds = %if.end28, %delete.notnull31, %if.end
  tail call void @_ZN7Imf_3_216GenericInputFileD2Ev(ptr noundef nonnull align 8 dereferenceable(8) %this) #21
  ret void
}